target datalayout = "e-m:e-p270:32:32-p271:32:32-p272:64:64-i64:64-i128:128-f80:128-n8:16:32:64-S128"
target triple = "x86_64-pc-linux-gnu"

%struct.Res6_Man_t_ = type { i32, i32, i32, i32, i32, i32, %struct.Vec_Wrd_t_, %struct.Vec_Wrd_t_, ptr, ptr, %struct.Vec_Int_t_, %struct.Vec_Int_t_, %struct.Vec_Int_t_, %struct.Vec_Int_t_ }
%struct.Vec_Wrd_t_ = type { i32, i32, ptr }
%struct.Vec_Int_t_ = type { i32, i32, ptr }

; Function Attrs: inlinehint nounwind uwtable
define internal void @Vec_IntErase(ptr noundef %0) #2 {
  %2 = alloca ptr, align 8
  store ptr %0, ptr %2, align 8, !tbaa !54
  %3 = load ptr, ptr %2, align 8, !tbaa !54
  %4 = getelementptr inbounds nuw %struct.Vec_Int_t_, ptr %3, i32 0, i32 2
  %5 = load ptr, ptr %4, align 8, !tbaa !56
  %6 = icmp ne ptr %5, null
  br i1 %6, label %7, label %13

7:                                                ; preds = %1
  %8 = load ptr, ptr %2, align 8, !tbaa !54
  %9 = getelementptr inbounds nuw %struct.Vec_Int_t_, ptr %8, i32 0, i32 2
  %10 = load ptr, ptr %9, align 8, !tbaa !56
  call void @free(ptr noundef %10) #11
  %11 = load ptr, ptr %2, align 8, !tbaa !54
  %12 = getelementptr inbounds nuw %struct.Vec_Int_t_, ptr %11, i32 0, i32 2
  store ptr null, ptr %12, align 8, !tbaa !56
  br label %14

13:                                               ; preds = %1
  br label %14

14:                                               ; preds = %13, %7
  %15 = load ptr, ptr %2, align 8, !tbaa !54
  %16 = getelementptr inbounds nuw %struct.Vec_Int_t_, ptr %15, i32 0, i32 1
  store i32 0, ptr %16, align 4, !tbaa !55
  %17 = load ptr, ptr %2, align 8, !tbaa !54
  %18 = getelementptr inbounds nuw %struct.Vec_Int_t_, ptr %17, i32 0, i32 0
  store i32 0, ptr %18, align 8, !tbaa !57
  ret void
}

; Function Attrs: inlinehint nounwind uwtable
define internal void @Vec_WrdErase(ptr noundef %0) #2 {
  %2 = alloca ptr, align 8
  store ptr %0, ptr %2, align 8, !tbaa !52
  %3 = load ptr, ptr %2, align 8, !tbaa !52
  %4 = getelementptr inbounds nuw %struct.Vec_Wrd_t_, ptr %3, i32 0, i32 2
  %5 = load ptr, ptr %4, align 8, !tbaa !53
  %6 = icmp ne ptr %5, null
  br i1 %6, label %7, label %13

7:                                                ; preds = %1
  %8 = load ptr, ptr %2, align 8, !tbaa !52
  %9 = getelementptr inbounds nuw %struct.Vec_Wrd_t_, ptr %8, i32 0, i32 2
  %10 = load ptr, ptr %9, align 8, !tbaa !53
  call void @free(ptr noundef %10) #11
  %11 = load ptr, ptr %2, align 8, !tbaa !52
  %12 = getelementptr inbounds nuw %struct.Vec_Wrd_t_, ptr %11, i32 0, i32 2
  store ptr null, ptr %12, align 8, !tbaa !53
  br label %14

13:                                               ; preds = %1
  br label %14

14:                                               ; preds = %13, %7
  %15 = load ptr, ptr %2, align 8, !tbaa !52
  %16 = getelementptr inbounds nuw %struct.Vec_Wrd_t_, ptr %15, i32 0, i32 1
  store i32 0, ptr %16, align 4, !tbaa !98
  %17 = load ptr, ptr %2, align 8, !tbaa !52
  %18 = getelementptr inbounds nuw %struct.Vec_Wrd_t_, ptr %17, i32 0, i32 0
  store i32 0, ptr %18, align 8, !tbaa !99
  ret void
}

; Function Attrs: inlinehint nounwind uwtable
define internal void @Res6_ManStop(ptr noundef %0) #2 {
  %2 = alloca ptr, align 8
  store ptr %0, ptr %2, align 8, !tbaa !17
  %3 = load ptr, ptr %2, align 8, !tbaa !17
  %4 = getelementptr inbounds nuw %struct.Res6_Man_t_, ptr %3, i32 0, i32 6
  call void @Vec_WrdErase(ptr noundef %4)
  %5 = load ptr, ptr %2, align 8, !tbaa !17
  %6 = getelementptr inbounds nuw %struct.Res6_Man_t_, ptr %5, i32 0, i32 7
  call void @Vec_WrdErase(ptr noundef %6)
  %7 = load ptr, ptr %2, align 8, !tbaa !17
  %8 = getelementptr inbounds nuw %struct.Res6_Man_t_, ptr %7, i32 0, i32 10
  call void @Vec_IntErase(ptr noundef %8)
  %9 = load ptr, ptr %2, align 8, !tbaa !17
  %10 = getelementptr inbounds nuw %struct.Res6_Man_t_, ptr %9, i32 0, i32 11
  call void @Vec_IntErase(ptr noundef %10)
  %11 = load ptr, ptr %2, align 8, !tbaa !17
  %12 = getelementptr inbounds nuw %struct.Res6_Man_t_, ptr %11, i32 0, i32 12
  call void @Vec_IntErase(ptr noundef %12)
  %13 = load ptr, ptr %2, align 8, !tbaa !17
  %14 = getelementptr inbounds nuw %struct.Res6_Man_t_, ptr %13, i32 0, i32 13
  call void @Vec_IntErase(ptr noundef %14)
  %15 = load ptr, ptr %2, align 8, !tbaa !17
  %16 = getelementptr inbounds nuw %struct.Res6_Man_t_, ptr %15, i32 0, i32 8
  %17 = load ptr, ptr %16, align 8, !tbaa !27
  %18 = icmp ne ptr %17, null
  br i1 %18, label %19, label %25

19:                                               ; preds = %1
  %20 = load ptr, ptr %2, align 8, !tbaa !17
  %21 = getelementptr inbounds nuw %struct.Res6_Man_t_, ptr %20, i32 0, i32 8
  %22 = load ptr, ptr %21, align 8, !tbaa !27
  call void @free(ptr noundef %22) #11
  %23 = load ptr, ptr %2, align 8, !tbaa !17
  %24 = getelementptr inbounds nuw %struct.Res6_Man_t_, ptr %23, i32 0, i32 8
  store ptr null, ptr %24, align 8, !tbaa !27
  br label %26

25:                                               ; preds = %1
  br label %26

26:                                               ; preds = %25, %19
  %27 = load ptr, ptr %2, align 8, !tbaa !17
  %28 = getelementptr inbounds nuw %struct.Res6_Man_t_, ptr %27, i32 0, i32 9
  %29 = load ptr, ptr %28, align 8, !tbaa !35
  %30 = icmp ne ptr %29, null
  br i1 %30, label %31, label %37

31:                                               ; preds = %26
  %32 = load ptr, ptr %2, align 8, !tbaa !17
  %33 = getelementptr inbounds nuw %struct.Res6_Man_t_, ptr %32, i32 0, i32 9
  %34 = load ptr, ptr %33, align 8, !tbaa !35
  call void @free(ptr noundef %34) #11
  %35 = load ptr, ptr %2, align 8, !tbaa !17
  %36 = getelementptr inbounds nuw %struct.Res6_Man_t_, ptr %35, i32 0, i32 9
  store ptr null, ptr %36, align 8, !tbaa !35
  br label %38

37:                                               ; preds = %26
  br label %38

38:                                               ; preds = %37, %31
  %39 = load ptr, ptr %2, align 8, !tbaa !17
  %40 = icmp ne ptr %39, null
  br i1 %40, label %41, label %43

41:                                               ; preds = %38
  %42 = load ptr, ptr %2, align 8, !tbaa !17
  call void @free(ptr noundef %42) #11
  store ptr null, ptr %2, align 8, !tbaa !17
  br label %44

43:                                               ; preds = %38
  br label %44

44:                                               ; preds = %43, %41
  ret void
}