; Function Attrs: inlinehint mustprogress nounwind willreturn uwtable
define internal fastcc void @Res6_ManStop(ptr noundef captures(none) initializes((24, 32), (40, 48), (72, 80), (88, 96), (104, 112), (120, 128)) %0) unnamed_addr #5 {
  %2 = getelementptr inbounds nuw i8, ptr %0, i64 24
  %3 = getelementptr inbounds nuw i8, ptr %0, i64 32
  %4 = load ptr, ptr %3, align 8, !tbaa !21
  %.not.i = icmp eq ptr %4, null
  br i1 %.not.i, label %Vec_WrdErase.exit, label %5

5:                                                ; preds = %1
  tail call void @free(ptr noundef nonnull %4) #21
  store ptr null, ptr %3, align 8, !tbaa !21
  br label %Vec_WrdErase.exit

Vec_WrdErase.exit:                                ; preds = %1, %5
  %6 = getelementptr inbounds nuw i8, ptr %0, i64 28
  store i32 0, ptr %6, align 4, !tbaa !22
  store i32 0, ptr %2, align 8, !tbaa !18
  %7 = getelementptr inbounds nuw i8, ptr %0, i64 40
  %8 = getelementptr inbounds nuw i8, ptr %0, i64 48
  %9 = load ptr, ptr %8, align 8, !tbaa !21
  %.not.i18 = icmp eq ptr %9, null
  br i1 %.not.i18, label %Vec_WrdErase.exit19, label %10

10:                                               ; preds = %Vec_WrdErase.exit
  tail call void @free(ptr noundef nonnull %9) #21
  store ptr null, ptr %8, align 8, !tbaa !21
  br label %Vec_WrdErase.exit19

Vec_WrdErase.exit19:                              ; preds = %Vec_WrdErase.exit, %10
  %11 = getelementptr inbounds nuw i8, ptr %0, i64 44
  store i32 0, ptr %11, align 4, !tbaa !22
  store i32 0, ptr %7, align 8, !tbaa !18
  %12 = getelementptr inbounds nuw i8, ptr %0, i64 72
  %13 = getelementptr inbounds nuw i8, ptr %0, i64 80
  %14 = load ptr, ptr %13, align 8, !tbaa !29
  %.not.i20 = icmp eq ptr %14, null
  br i1 %.not.i20, label %Vec_IntErase.exit, label %15

15:                                               ; preds = %Vec_WrdErase.exit19
  tail call void @free(ptr noundef nonnull %14) #21
  store ptr null, ptr %13, align 8, !tbaa !29
  br label %Vec_IntErase.exit

Vec_IntErase.exit:                                ; preds = %Vec_WrdErase.exit19, %15
  %16 = getelementptr inbounds nuw i8, ptr %0, i64 76
  store i32 0, ptr %16, align 4, !tbaa !25
  store i32 0, ptr %12, align 8, !tbaa !28
  %17 = getelementptr inbounds nuw i8, ptr %0, i64 88
  %18 = getelementptr inbounds nuw i8, ptr %0, i64 96
  %19 = load ptr, ptr %18, align 8, !tbaa !29
  %.not.i21 = icmp eq ptr %19, null
  br i1 %.not.i21, label %Vec_IntErase.exit22, label %20

20:                                               ; preds = %Vec_IntErase.exit
  tail call void @free(ptr noundef nonnull %19) #21
  store ptr null, ptr %18, align 8, !tbaa !29
  br label %Vec_IntErase.exit22

Vec_IntErase.exit22:                              ; preds = %Vec_IntErase.exit, %20
  %21 = getelementptr inbounds nuw i8, ptr %0, i64 92
  store i32 0, ptr %21, align 4, !tbaa !25
  store i32 0, ptr %17, align 8, !tbaa !28
  %22 = getelementptr inbounds nuw i8, ptr %0, i64 104
  %23 = getelementptr inbounds nuw i8, ptr %0, i64 112
  %24 = load ptr, ptr %23, align 8, !tbaa !29
  %.not.i23 = icmp eq ptr %24, null
  br i1 %.not.i23, label %Vec_IntErase.exit24, label %25

25:                                               ; preds = %Vec_IntErase.exit22
  tail call void @free(ptr noundef nonnull %24) #21
  store ptr null, ptr %23, align 8, !tbaa !29
  br label %Vec_IntErase.exit24

Vec_IntErase.exit24:                              ; preds = %Vec_IntErase.exit22, %25
  %26 = getelementptr inbounds nuw i8, ptr %0, i64 108
  store i32 0, ptr %26, align 4, !tbaa !25
  store i32 0, ptr %22, align 8, !tbaa !28
  %27 = getelementptr inbounds nuw i8, ptr %0, i64 120
  %28 = getelementptr inbounds nuw i8, ptr %0, i64 128
  %29 = load ptr, ptr %28, align 8, !tbaa !29
  %.not.i25 = icmp eq ptr %29, null
  br i1 %.not.i25, label %Vec_IntErase.exit26, label %30

30:                                               ; preds = %Vec_IntErase.exit24
  tail call void @free(ptr noundef nonnull %29) #21
  store ptr null, ptr %28, align 8, !tbaa !29
  br label %Vec_IntErase.exit26

Vec_IntErase.exit26:                              ; preds = %Vec_IntErase.exit24, %30
  %31 = getelementptr inbounds nuw i8, ptr %0, i64 124
  store i32 0, ptr %31, align 4, !tbaa !25
  store i32 0, ptr %27, align 8, !tbaa !28
  %32 = getelementptr inbounds nuw i8, ptr %0, i64 56
  %33 = load ptr, ptr %32, align 8, !tbaa !40
  %.not = icmp eq ptr %33, null
  br i1 %.not, label %35, label %34

34:                                               ; preds = %Vec_IntErase.exit26
  tail call void @free(ptr noundef nonnull %33) #21
  store ptr null, ptr %32, align 8, !tbaa !40
  br label %35

35:                                               ; preds = %Vec_IntErase.exit26, %34
  %36 = getelementptr inbounds nuw i8, ptr %0, i64 64
  %37 = load ptr, ptr %36, align 8, !tbaa !49
  %.not16 = icmp eq ptr %37, null
  br i1 %.not16, label %39, label %38

38:                                               ; preds = %35
  tail call void @free(ptr noundef nonnull %37) #21
  br label %39

39:                                               ; preds = %35, %38
  tail call void @free(ptr noundef nonnull %0) #21
  ret void
}